; Function Attrs: mustprogress nounwind uwtable
define hidden void @_ZN19JfrPeriodicEventSet21requestCPUInformationEv() local_unnamed_addr #2 align 2 {
  %1 = alloca %class.CPUInformation, align 8
  %2 = alloca %class.EventCPUInformation, align 8
  store i32 0, ptr %1, align 8
  %3 = getelementptr inbounds i8, ptr %1, i64 4
  store i32 0, ptr %3, align 4
  %4 = getelementptr inbounds i8, ptr %1, i64 8
  store i32 0, ptr %4, align 8
  %5 = getelementptr inbounds i8, ptr %1, i64 16
  call void @llvm.memset.p0.i64(ptr noundef nonnull align 8 dereferenceable(16) %5, i8 0, i64 16, i1 false)
  %6 = call noundef i32 @_ZN14JfrOSInterface15cpu_informationER14CPUInformation(ptr noundef nonnull align 8 dereferenceable(32) %1) #13
  switch i32 %6, label %22 [
    i32 -1, label %7
    i32 0, label %10
  ]

7:                                                ; preds = %0
  %8 = load volatile ptr, ptr getelementptr inbounds (i8, ptr @_ZN16LogTagSetMappingILN6LogTag4typeE64ELS1_156ELS1_0ELS1_0ELS1_0ELS1_0EE7_tagsetE, i64 56), align 8
  %.not = icmp eq ptr %8, null
  br i1 %.not, label %22, label %9

9:                                                ; preds = %7
  call void (ptr, ...) @_ZN7LogImplILN6LogTag4typeE64ELS1_156ELS1_0ELS1_0ELS1_0ELS1_0EE5writeILN8LogLevel4typeE2EEEvPKcz(ptr noundef nonnull @.str)
  br label %22

10:                                               ; preds = %0
  call void @llvm.memset.p0.i64(ptr noundef nonnull align 8 dereferenceable(19) %2, i8 0, i64 19, i1 false)
  %11 = load i8, ptr getelementptr inbounds (i8, ptr @_ZN15JfrEventSetting19_jvm_event_settingsE, i64 2489), align 1
  %12 = icmp eq i8 %11, 0
  br i1 %12, label %_ZN19EventCPUInformationC2E14EventStartTime.exit, label %13

13:                                               ; preds = %10
  %14 = call noundef i64 @_ZN33FastUnorderedElapsedCounterSource3nowEv() #13
  store i64 %14, ptr %2, align 8
  br label %_ZN19EventCPUInformationC2E14EventStartTime.exit

_ZN19EventCPUInformationC2E14EventStartTime.exit: ; preds = %10, %13
  %15 = getelementptr inbounds i8, ptr %2, i64 24
  %16 = load <2 x ptr>, ptr %5, align 8
  %17 = shufflevector <2 x ptr> %16, <2 x ptr> poison, <2 x i32> <i32 1, i32 0>
  store <2 x ptr> %17, ptr %15, align 8
  %18 = getelementptr inbounds i8, ptr %2, i64 40
  %19 = load <2 x i32>, ptr %1, align 8
  store <2 x i32> %19, ptr %18, align 8
  %20 = load i32, ptr %4, align 8
  %21 = getelementptr inbounds i8, ptr %2, i64 48
  store i32 %20, ptr %21, align 8
  call void @_ZN8JfrEventI19EventCPUInformationE6commitEv(ptr noundef nonnull align 8 dereferenceable(19) %2)
  br label %22

22:                                               ; preds = %0, %9, %7, %_ZN19EventCPUInformationC2E14EventStartTime.exit
  ret void
}